target datalayout = "e-m:e-p270:32:32-p271:32:32-p272:64:64-i64:64-i128:128-f80:128-n8:16:32:64-S128"
target triple = "x86_64-pc-linux-gnu"

%struct.Abc_Frame_t_ = type { ptr, ptr, ptr, ptr, ptr, ptr, ptr, ptr, ptr, ptr, i32, i32, i32, i32, i32, ptr, float, float, i32, i32, ptr, ptr, ptr, double, double, ptr, ptr, ptr, ptr, ptr, ptr, ptr, ptr, ptr, ptr, ptr, ptr, float, ptr, i32, ptr, ptr, ptr, ptr, ptr, i32, i32, i32, i32, i32, i32, ptr, ptr, ptr, ptr, ptr, ptr, i32, i32, ptr, ptr, ptr, ptr, ptr, ptr, ptr, ptr, ptr, ptr, ptr, ptr, ptr, ptr, ptr, ptr, ptr, ptr, ptr, ptr, ptr, ptr, ptr, ptr, ptr, ptr, ptr, ptr, ptr, ptr }

@.str.41 = private unnamed_addr constant [4 x i8] c"yes\00", align 1
@.str.42 = private unnamed_addr constant [3 x i8] c"no\00", align 1
@.str.45 = private unnamed_addr constant [62 x i8] c"\09-v     : toggle printing verbose information [default = %s]\0A\00", align 1
@.str.46 = private unnamed_addr constant [35 x i8] c"\09-h     : print the command usage\0A\00", align 1
@.str.58 = private unnamed_addr constant [10 x i8] c"cbamdtovh\00", align 1
@.str.59 = private unnamed_addr constant [46 x i8] c"Abc_CommandPs(): There is no current design.\0A\00", align 1
@.str.60 = private unnamed_addr constant [26 x i8] c"usage: %%ps [-cbamdtovh]\0A\00", align 1
@.str.61 = private unnamed_addr constant [29 x i8] c"\09         prints statistics\0A\00", align 1
@.str.62 = private unnamed_addr constant [48 x i8] c"\09-c     : toggle printing cones [default = %s]\0A\00", align 1
@.str.63 = private unnamed_addr constant [54 x i8] c"\09-b     : toggle printing multipliers [default = %s]\0A\00", align 1
@.str.64 = private unnamed_addr constant [49 x i8] c"\09-a     : toggle printing adders [default = %s]\0A\00", align 1
@.str.65 = private unnamed_addr constant [51 x i8] c"\09-m     : toggle printing memories [default = %s]\0A\00", align 1
@.str.66 = private unnamed_addr constant [55 x i8] c"\09-d     : toggle printing distrubition [default = %s]\0A\00", align 1
@.str.67 = private unnamed_addr constant [64 x i8] c"\09-t     : toggle printing stats for LHS and RHS [default = %s]\0A\00", align 1
@.str.68 = private unnamed_addr constant [54 x i8] c"\09-o     : toggle printing all objects [default = %s]\0A\00", align 1

; Function Attrs: inlinehint nounwind uwtable
define internal ptr @Wlc_AbcGetNtk(ptr noundef %0) #2 {
  %2 = alloca ptr, align 8
  store ptr %0, ptr %2, align 8, !tbaa !3
  %3 = load ptr, ptr %2, align 8, !tbaa !3
  %4 = getelementptr inbounds nuw %struct.Abc_Frame_t_, ptr %3, i32 0, i32 71
  %5 = load ptr, ptr %4, align 8, !tbaa !132
  ret ptr %5
}

; Function Attrs: nounwind uwtable
define internal i32 @Abc_CommandPs(ptr noundef %0, i32 noundef %1, ptr noundef %2) #0 {
  %4 = alloca i32, align 4
  %5 = alloca ptr, align 8
  %6 = alloca i32, align 4
  %7 = alloca ptr, align 8
  %8 = alloca ptr, align 8
  %9 = alloca i32, align 4
  %10 = alloca i32, align 4
  %11 = alloca i32, align 4
  %12 = alloca i32, align 4
  %13 = alloca i32, align 4
  %14 = alloca i32, align 4
  %15 = alloca i32, align 4
  %16 = alloca i32, align 4
  %17 = alloca i32, align 4
  %18 = alloca i32, align 4
  store ptr %0, ptr %5, align 8, !tbaa !3
  store i32 %1, ptr %6, align 4, !tbaa !8
  store ptr %2, ptr %7, align 8, !tbaa !10
  call void @llvm.lifetime.start.p0(i64 8, ptr %8) #12
  %19 = load ptr, ptr %5, align 8, !tbaa !3
  %20 = call ptr @Wlc_AbcGetNtk(ptr noundef %19)
  store ptr %20, ptr %8, align 8, !tbaa !12
  call void @llvm.lifetime.start.p0(i64 4, ptr %9) #12
  store i32 0, ptr %9, align 4, !tbaa !8
  call void @llvm.lifetime.start.p0(i64 4, ptr %10) #12
  store i32 0, ptr %10, align 4, !tbaa !8
  call void @llvm.lifetime.start.p0(i64 4, ptr %11) #12
  store i32 0, ptr %11, align 4, !tbaa !8
  call void @llvm.lifetime.start.p0(i64 4, ptr %12) #12
  store i32 0, ptr %12, align 4, !tbaa !8
  call void @llvm.lifetime.start.p0(i64 4, ptr %13) #12
  store i32 0, ptr %13, align 4, !tbaa !8
  call void @llvm.lifetime.start.p0(i64 4, ptr %14) #12
  store i32 0, ptr %14, align 4, !tbaa !8
  call void @llvm.lifetime.start.p0(i64 4, ptr %15) #12
  store i32 0, ptr %15, align 4, !tbaa !8
  call void @llvm.lifetime.start.p0(i64 4, ptr %16) #12
  call void @llvm.lifetime.start.p0(i64 4, ptr %17) #12
  store i32 0, ptr %17, align 4, !tbaa !8
  call void (...) @Extra_UtilGetoptReset()
  br label %21

21:                                               ; preds = %54, %3
  %22 = load i32, ptr %6, align 4, !tbaa !8
  %23 = load ptr, ptr %7, align 8, !tbaa !10
  %24 = call i32 @Extra_UtilGetopt(i32 noundef %22, ptr noundef %23, ptr noundef @.str.58)
  store i32 %24, ptr %16, align 4, !tbaa !8
  %25 = icmp ne i32 %24, -1
  br i1 %25, label %26, label %55

26:                                               ; preds = %21
  %27 = load i32, ptr %16, align 4, !tbaa !8
  switch i32 %27, label %53 [
    i32 99, label %28
    i32 98, label %31
    i32 97, label %34
    i32 109, label %37
    i32 100, label %40
    i32 116, label %43
    i32 111, label %46
    i32 118, label %49
    i32 104, label %52
  ]

28:                                               ; preds = %26
  %29 = load i32, ptr %9, align 4, !tbaa !8
  %30 = xor i32 %29, 1
  store i32 %30, ptr %9, align 4, !tbaa !8
  br label %54

31:                                               ; preds = %26
  %32 = load i32, ptr %10, align 4, !tbaa !8
  %33 = xor i32 %32, 1
  store i32 %33, ptr %10, align 4, !tbaa !8
  br label %54

34:                                               ; preds = %26
  %35 = load i32, ptr %11, align 4, !tbaa !8
  %36 = xor i32 %35, 1
  store i32 %36, ptr %11, align 4, !tbaa !8
  br label %54

37:                                               ; preds = %26
  %38 = load i32, ptr %12, align 4, !tbaa !8
  %39 = xor i32 %38, 1
  store i32 %39, ptr %12, align 4, !tbaa !8
  br label %54

40:                                               ; preds = %26
  %41 = load i32, ptr %13, align 4, !tbaa !8
  %42 = xor i32 %41, 1
  store i32 %42, ptr %13, align 4, !tbaa !8
  br label %54

43:                                               ; preds = %26
  %44 = load i32, ptr %14, align 4, !tbaa !8
  %45 = xor i32 %44, 1
  store i32 %45, ptr %14, align 4, !tbaa !8
  br label %54

46:                                               ; preds = %26
  %47 = load i32, ptr %15, align 4, !tbaa !8
  %48 = xor i32 %47, 1
  store i32 %48, ptr %15, align 4, !tbaa !8
  br label %54

49:                                               ; preds = %26
  %50 = load i32, ptr %17, align 4, !tbaa !8
  %51 = xor i32 %50, 1
  store i32 %51, ptr %17, align 4, !tbaa !8
  br label %54

52:                                               ; preds = %26
  br label %89

53:                                               ; preds = %26
  br label %89

54:                                               ; preds = %49, %46, %43, %40, %37, %34, %31, %28
  br label %21, !llvm.loop !41

55:                                               ; preds = %21
  %56 = load ptr, ptr %8, align 8, !tbaa !12
  %57 = icmp eq ptr %56, null
  br i1 %57, label %58, label %59

58:                                               ; preds = %55
  call void (i32, ptr, ...) @Abc_Print(i32 noundef 1, ptr noundef @.str.59)
  store i32 0, ptr %4, align 4
  store i32 1, ptr %18, align 4
  br label %114

59:                                               ; preds = %55
  %60 = load ptr, ptr %8, align 8, !tbaa !12
  %61 = load i32, ptr %13, align 4, !tbaa !8
  %62 = load i32, ptr %14, align 4, !tbaa !8
  %63 = load i32, ptr %17, align 4, !tbaa !8
  call void @Wlc_NtkPrintStats(ptr noundef %60, i32 noundef %61, i32 noundef %62, i32 noundef %63)
  %64 = load i32, ptr %9, align 4, !tbaa !8
  %65 = icmp ne i32 %64, 0
  br i1 %65, label %66, label %68

66:                                               ; preds = %59
  %67 = load ptr, ptr %8, align 8, !tbaa !12
  call void @Wlc_NtkProfileCones(ptr noundef %67)
  br label %68

68:                                               ; preds = %66, %59
  %69 = load i32, ptr %10, align 4, !tbaa !8
  %70 = icmp ne i32 %69, 0
  br i1 %70, label %71, label %73

71:                                               ; preds = %68
  %72 = load ptr, ptr %8, align 8, !tbaa !12
  call void @Wlc_NtkPrintNodes(ptr noundef %72, i32 noundef 45)
  br label %73

73:                                               ; preds = %71, %68
  %74 = load i32, ptr %11, align 4, !tbaa !8
  %75 = icmp ne i32 %74, 0
  br i1 %75, label %76, label %78

76:                                               ; preds = %73
  %77 = load ptr, ptr %8, align 8, !tbaa !12
  call void @Wlc_NtkPrintNodes(ptr noundef %77, i32 noundef 43)
  br label %78

78:                                               ; preds = %76, %73
  %79 = load i32, ptr %12, align 4, !tbaa !8
  %80 = icmp ne i32 %79, 0
  br i1 %80, label %81, label %83

81:                                               ; preds = %78
  %82 = load ptr, ptr %8, align 8, !tbaa !12
  call void @Wlc_NtkPrintMemory(ptr noundef %82)
  br label %83

83:                                               ; preds = %81, %78
  %84 = load i32, ptr %15, align 4, !tbaa !8
  %85 = icmp ne i32 %84, 0
  br i1 %85, label %86, label %88

86:                                               ; preds = %83
  %87 = load ptr, ptr %8, align 8, !tbaa !12
  call void @Wlc_NtkPrintObjects(ptr noundef %87)
  br label %88

88:                                               ; preds = %86, %83
  store i32 0, ptr %4, align 4
  store i32 1, ptr %18, align 4
  br label %114

89:                                               ; preds = %53, %52
  call void (i32, ptr, ...) @Abc_Print(i32 noundef -2, ptr noundef @.str.60)
  call void (i32, ptr, ...) @Abc_Print(i32 noundef -2, ptr noundef @.str.61)
  %90 = load i32, ptr %9, align 4, !tbaa !8
  %91 = icmp ne i32 %90, 0
  %92 = select i1 %91, ptr @.str.41, ptr @.str.42
  call void (i32, ptr, ...) @Abc_Print(i32 noundef -2, ptr noundef @.str.62, ptr noundef %92)
  %93 = load i32, ptr %10, align 4, !tbaa !8
  %94 = icmp ne i32 %93, 0
  %95 = select i1 %94, ptr @.str.41, ptr @.str.42
  call void (i32, ptr, ...) @Abc_Print(i32 noundef -2, ptr noundef @.str.63, ptr noundef %95)
  %96 = load i32, ptr %11, align 4, !tbaa !8
  %97 = icmp ne i32 %96, 0
  %98 = select i1 %97, ptr @.str.41, ptr @.str.42
  call void (i32, ptr, ...) @Abc_Print(i32 noundef -2, ptr noundef @.str.64, ptr noundef %98)
  %99 = load i32, ptr %12, align 4, !tbaa !8
  %100 = icmp ne i32 %99, 0
  %101 = select i1 %100, ptr @.str.41, ptr @.str.42
  call void (i32, ptr, ...) @Abc_Print(i32 noundef -2, ptr noundef @.str.65, ptr noundef %101)
  %102 = load i32, ptr %13, align 4, !tbaa !8
  %103 = icmp ne i32 %102, 0
  %104 = select i1 %103, ptr @.str.41, ptr @.str.42
  call void (i32, ptr, ...) @Abc_Print(i32 noundef -2, ptr noundef @.str.66, ptr noundef %104)
  %105 = load i32, ptr %14, align 4, !tbaa !8
  %106 = icmp ne i32 %105, 0
  %107 = select i1 %106, ptr @.str.41, ptr @.str.42
  call void (i32, ptr, ...) @Abc_Print(i32 noundef -2, ptr noundef @.str.67, ptr noundef %107)
  %108 = load i32, ptr %15, align 4, !tbaa !8
  %109 = icmp ne i32 %108, 0
  %110 = select i1 %109, ptr @.str.41, ptr @.str.42
  call void (i32, ptr, ...) @Abc_Print(i32 noundef -2, ptr noundef @.str.68, ptr noundef %110)
  %111 = load i32, ptr %17, align 4, !tbaa !8
  %112 = icmp ne i32 %111, 0
  %113 = select i1 %112, ptr @.str.41, ptr @.str.42
  call void (i32, ptr, ...) @Abc_Print(i32 noundef -2, ptr noundef @.str.45, ptr noundef %113)
  call void (i32, ptr, ...) @Abc_Print(i32 noundef -2, ptr noundef @.str.46)
  store i32 1, ptr %4, align 4
  store i32 1, ptr %18, align 4
  br label %114

114:                                              ; preds = %89, %88, %58
  call void @llvm.lifetime.end.p0(i64 4, ptr %17) #12
  call void @llvm.lifetime.end.p0(i64 4, ptr %16) #12
  call void @llvm.lifetime.end.p0(i64 4, ptr %15) #12
  call void @llvm.lifetime.end.p0(i64 4, ptr %14) #12
  call void @llvm.lifetime.end.p0(i64 4, ptr %13) #12
  call void @llvm.lifetime.end.p0(i64 4, ptr %12) #12
  call void @llvm.lifetime.end.p0(i64 4, ptr %11) #12
  call void @llvm.lifetime.end.p0(i64 4, ptr %10) #12
  call void @llvm.lifetime.end.p0(i64 4, ptr %9) #12
  call void @llvm.lifetime.end.p0(i64 8, ptr %8) #12
  %115 = load i32, ptr %4, align 4
  ret i32 %115
}