; Function Attrs: nounwind uwtable
define internal range(i32 0, 2) i32 @Abc_CommandPs(ptr noundef readonly captures(none) %0, i32 noundef %1, ptr noundef %2) #0 {
  %4 = getelementptr i8, ptr %0, i64 504
  %.val = load ptr, ptr %4, align 8, !tbaa !27
  tail call void (...) @Extra_UtilGetoptReset() #17
  br label %5

5:                                                ; preds = %.backedge, %3
  %.048 = phi i32 [ 0, %3 ], [ %.048.be, %.backedge ]
  %.046 = phi i32 [ 0, %3 ], [ %.046.be, %.backedge ]
  %.044 = phi i32 [ 0, %3 ], [ %.044.be, %.backedge ]
  %.042 = phi i32 [ 0, %3 ], [ %.042.be, %.backedge ]
  %.040 = phi i32 [ 0, %3 ], [ %.040.be, %.backedge ]
  %.038 = phi i32 [ 0, %3 ], [ %.038.be, %.backedge ]
  %.036 = phi i32 [ 0, %3 ], [ %.036.be, %.backedge ]
  %.0 = phi i32 [ 0, %3 ], [ %.0.be, %.backedge ]
  %6 = tail call i32 @Extra_UtilGetopt(i32 noundef %1, ptr noundef %2, ptr noundef nonnull @.str.58) #17
  switch i32 %6, label %36 [
    i32 -1, label %23
    i32 99, label %7
    i32 98, label %9
    i32 97, label %11
    i32 109, label %13
    i32 100, label %15
    i32 116, label %17
    i32 111, label %19
    i32 118, label %21
  ]

7:                                                ; preds = %5
  %8 = xor i32 %.048, 1
  br label %.backedge

9:                                                ; preds = %5
  %10 = xor i32 %.046, 1
  br label %.backedge

11:                                               ; preds = %5
  %12 = xor i32 %.044, 1
  br label %.backedge

13:                                               ; preds = %5
  %14 = xor i32 %.042, 1
  br label %.backedge

15:                                               ; preds = %5
  %16 = xor i32 %.040, 1
  br label %.backedge

17:                                               ; preds = %5
  %18 = xor i32 %.038, 1
  br label %.backedge

19:                                               ; preds = %5
  %20 = xor i32 %.036, 1
  br label %.backedge

21:                                               ; preds = %5
  %22 = xor i32 %.0, 1
  br label %.backedge

.backedge:                                        ; preds = %21, %19, %17, %15, %13, %11, %9, %7
  %.048.be = phi i32 [ %.048, %21 ], [ %.048, %19 ], [ %.048, %17 ], [ %.048, %15 ], [ %.048, %13 ], [ %.048, %11 ], [ %.048, %9 ], [ %8, %7 ]
  %.046.be = phi i32 [ %.046, %21 ], [ %.046, %19 ], [ %.046, %17 ], [ %.046, %15 ], [ %.046, %13 ], [ %.046, %11 ], [ %10, %9 ], [ %.046, %7 ]
  %.044.be = phi i32 [ %.044, %21 ], [ %.044, %19 ], [ %.044, %17 ], [ %.044, %15 ], [ %.044, %13 ], [ %12, %11 ], [ %.044, %9 ], [ %.044, %7 ]
  %.042.be = phi i32 [ %.042, %21 ], [ %.042, %19 ], [ %.042, %17 ], [ %.042, %15 ], [ %14, %13 ], [ %.042, %11 ], [ %.042, %9 ], [ %.042, %7 ]
  %.040.be = phi i32 [ %.040, %21 ], [ %.040, %19 ], [ %.040, %17 ], [ %16, %15 ], [ %.040, %13 ], [ %.040, %11 ], [ %.040, %9 ], [ %.040, %7 ]
  %.038.be = phi i32 [ %.038, %21 ], [ %.038, %19 ], [ %18, %17 ], [ %.038, %15 ], [ %.038, %13 ], [ %.038, %11 ], [ %.038, %9 ], [ %.038, %7 ]
  %.036.be = phi i32 [ %.036, %21 ], [ %20, %19 ], [ %.036, %17 ], [ %.036, %15 ], [ %.036, %13 ], [ %.036, %11 ], [ %.036, %9 ], [ %.036, %7 ]
  %.0.be = phi i32 [ %22, %21 ], [ %.0, %19 ], [ %.0, %17 ], [ %.0, %15 ], [ %.0, %13 ], [ %.0, %11 ], [ %.0, %9 ], [ %.0, %7 ]
  br label %5, !llvm.loop !35

23:                                               ; preds = %5
  %24 = icmp eq ptr %.val, null
  br i1 %24, label %25, label %26

25:                                               ; preds = %23
  tail call void (i32, ptr, ...) @Abc_Print(i32 noundef 1, ptr noundef nonnull @.str.59)
  br label %45

26:                                               ; preds = %23
  tail call void @Wlc_NtkPrintStats(ptr noundef nonnull %.val, i32 noundef %.040, i32 noundef %.038, i32 noundef %.0) #17
  %.not52 = icmp eq i32 %.048, 0
  br i1 %.not52, label %28, label %27

27:                                               ; preds = %26
  tail call void @Wlc_NtkProfileCones(ptr noundef nonnull %.val) #17
  br label %28

28:                                               ; preds = %27, %26
  %.not53 = icmp eq i32 %.046, 0
  br i1 %.not53, label %30, label %29

29:                                               ; preds = %28
  tail call void @Wlc_NtkPrintNodes(ptr noundef nonnull %.val, i32 noundef 45) #17
  br label %30

30:                                               ; preds = %29, %28
  %.not54 = icmp eq i32 %.044, 0
  br i1 %.not54, label %32, label %31

31:                                               ; preds = %30
  tail call void @Wlc_NtkPrintNodes(ptr noundef nonnull %.val, i32 noundef 43) #17
  br label %32

32:                                               ; preds = %31, %30
  %.not55 = icmp eq i32 %.042, 0
  br i1 %.not55, label %34, label %33

33:                                               ; preds = %32
  tail call void @Wlc_NtkPrintMemory(ptr noundef nonnull %.val) #17
  br label %34

34:                                               ; preds = %33, %32
  %.not56 = icmp eq i32 %.036, 0
  br i1 %.not56, label %45, label %35

35:                                               ; preds = %34
  tail call void @Wlc_NtkPrintObjects(ptr noundef nonnull %.val) #17
  br label %45

36:                                               ; preds = %5
  tail call void (i32, ptr, ...) @Abc_Print(i32 noundef -2, ptr noundef nonnull @.str.60)
  tail call void (i32, ptr, ...) @Abc_Print(i32 noundef -2, ptr noundef nonnull @.str.61)
  %.not57 = icmp eq i32 %.048, 0
  %37 = select i1 %.not57, ptr @.str.42, ptr @.str.41
  tail call void (i32, ptr, ...) @Abc_Print(i32 noundef -2, ptr noundef nonnull @.str.62, ptr noundef nonnull %37)
  %.not58 = icmp eq i32 %.046, 0
  %38 = select i1 %.not58, ptr @.str.42, ptr @.str.41
  tail call void (i32, ptr, ...) @Abc_Print(i32 noundef -2, ptr noundef nonnull @.str.63, ptr noundef nonnull %38)
  %.not59 = icmp eq i32 %.044, 0
  %39 = select i1 %.not59, ptr @.str.42, ptr @.str.41
  tail call void (i32, ptr, ...) @Abc_Print(i32 noundef -2, ptr noundef nonnull @.str.64, ptr noundef nonnull %39)
  %.not60 = icmp eq i32 %.042, 0
  %40 = select i1 %.not60, ptr @.str.42, ptr @.str.41
  tail call void (i32, ptr, ...) @Abc_Print(i32 noundef -2, ptr noundef nonnull @.str.65, ptr noundef nonnull %40)
  %.not61 = icmp eq i32 %.040, 0
  %41 = select i1 %.not61, ptr @.str.42, ptr @.str.41
  tail call void (i32, ptr, ...) @Abc_Print(i32 noundef -2, ptr noundef nonnull @.str.66, ptr noundef nonnull %41)
  %.not62 = icmp eq i32 %.038, 0
  %42 = select i1 %.not62, ptr @.str.42, ptr @.str.41
  tail call void (i32, ptr, ...) @Abc_Print(i32 noundef -2, ptr noundef nonnull @.str.67, ptr noundef nonnull %42)
  %.not63 = icmp eq i32 %.036, 0
  %43 = select i1 %.not63, ptr @.str.42, ptr @.str.41
  tail call void (i32, ptr, ...) @Abc_Print(i32 noundef -2, ptr noundef nonnull @.str.68, ptr noundef nonnull %43)
  %.not64 = icmp eq i32 %.0, 0
  %44 = select i1 %.not64, ptr @.str.42, ptr @.str.41
  tail call void (i32, ptr, ...) @Abc_Print(i32 noundef -2, ptr noundef nonnull @.str.45, ptr noundef nonnull %44)
  tail call void (i32, ptr, ...) @Abc_Print(i32 noundef -2, ptr noundef nonnull @.str.46)
  br label %45

45:                                               ; preds = %34, %35, %36, %25
  %.035 = phi i32 [ 1, %36 ], [ 0, %25 ], [ 0, %35 ], [ 0, %34 ]
  ret i32 %.035
}